(dp1
S'output'
p2
S"<type 'exceptions.AttributeError'> "
p3
sS'layer'
p4
S'/home/manohar/web2py/applications/iLife/controllers/default.py'
p5
sS'code'
p6
S'# -*- coding: utf-8 -*-\n# this file is released under public domain and you can use without limitations\n\n#########################################################################\n## This is a sample controller\n## - index is the default action of any application\n## - user is required for authentication and authorization\n## - download is for downloading files uploaded in the db (does streaming)\n#########################################################################\n\ndef index():\n    form = SQLFORM(db.Journal_Events).process()\n    if form.accepted:\n        session.flash = "Form Accepted"\n    elif form.errors:\n        response.flash = "Form Has Errors"\n    else:\n        response.flash = "Form First time displayed"\n    return locals()\n\ndef other():\n    name="Welcome to iLife Mr. %s" % request.vars.yourName\n    return locals()\n\ndef user():\n    """\n    exposes:\n    http://..../[app]/default/user/login\n    http://..../[app]/default/user/logout\n    http://..../[app]/default/user/register\n    http://..../[app]/default/user/profile\n    http://..../[app]/default/user/retrieve_password\n    http://..../[app]/default/user/change_password\n    http://..../[app]/default/user/manage_users (requires membership in\n    http://..../[app]/default/user/bulk_register\n    use @auth.requires_login()\n        @auth.requires_membership(\'group name\')\n        @auth.requires_permission(\'read\',\'table name\',record_id)\n    to decorate functions that need access control\n    """\n    return dict(form=auth())\n\n\n@cache.action()\ndef download():\n    """\n    allows downloading of uploaded files\n    http://..../[app]/default/download/[filename]\n    """\n    return response.download(request, db)\n\n\ndef call():\n    """\n    exposes services. for example:\n    http://..../[app]/default/call/jsonrpc\n    decorate with @services.jsonrpc the functions to expose\n    supports xml, json, xmlrpc, jsonrpc, amfrpc, rss, csv\n    """\n    return service()\n\nresponse._vars=response._caller(index)\n'
p7
sS'snapshot'
p8
(dp9
sS'traceback'
p10
S'Traceback (most recent call last):\n  File "/home/manohar/web2py/gluon/restricted.py", line 227, in restricted\n    exec ccode in environment\n  File "/home/manohar/web2py/applications/iLife/controllers/default.py", line 62, in <module>\n  File "/home/manohar/web2py/gluon/globals.py", line 412, in <lambda>\n    self._caller = lambda f: f()\n  File "/home/manohar/web2py/applications/iLife/controllers/default.py", line 12, in index\n    form = SQLFORM(db.Journal_Events).process()\n  File "/home/manohar/web2py/gluon/packages/dal/pydal/base.py", line 906, in __getattr__\n    return super(DAL, self).__getattr__(key)\n  File "/home/manohar/web2py/gluon/packages/dal/pydal/helpers/classes.py", line 30, in __getattr__\n    raise AttributeError\nAttributeError\n'
p11
s.